; Function Attrs: mustprogress nofree norecurse nosync nounwind willreturn memory(argmem: write) uwtable
define void @_ZN9grpc_core11ThreadQuotaC2Ev(ptr noundef nonnull writeonly align 8 captures(none) dereferenceable(40) initializes((0, 40)) %0) unnamed_addr #0 align 2 personality ptr @__gxx_personality_v0 {
  %2 = getelementptr inbounds nuw i8, ptr %0, i64 8
  store i64 1, ptr %2, align 8, !tbaa !3
  store ptr getelementptr inbounds nuw inrange(-16, 16) (i8, ptr @_ZTVN9grpc_core11ThreadQuotaE, i64 16), ptr %0, align 8, !tbaa !8
  %3 = getelementptr inbounds nuw i8, ptr %0, i64 16
  %4 = getelementptr inbounds nuw i8, ptr %0, i64 32
  tail call void @llvm.memset.p0.i64(ptr noundef nonnull align 8 dereferenceable(16) %3, i8 0, i64 16, i1 false)
  store i64 -1, ptr %4, align 8, !tbaa !10
  ret void
}